target datalayout = "e-m:e-p270:32:32-p271:32:32-p272:64:64-i64:64-i128:128-f80:128-n8:16:32:64-S128"
target triple = "x86_64-pc-linux-gnu"

%struct.SN_env = type { ptr, i32, i32, i32, i32, i32, ptr, ptr }

; Function Attrs: nounwind uwtable
define internal i32 @r_Suffix_Noun_Step2a(ptr noundef %0) #0 {
  %2 = alloca i32, align 4
  %3 = alloca ptr, align 8
  %4 = alloca i32, align 4
  %5 = alloca i32, align 4
  store ptr %0, ptr %3, align 8
  %6 = load ptr, ptr %3, align 8
  %7 = getelementptr inbounds nuw %struct.SN_env, ptr %6, i32 0, i32 1
  %8 = load i32, ptr %7, align 8
  %9 = load ptr, ptr %3, align 8
  %10 = getelementptr inbounds nuw %struct.SN_env, ptr %9, i32 0, i32 5
  store i32 %8, ptr %10, align 8
  %11 = load ptr, ptr %3, align 8
  %12 = call i32 @find_among_b(ptr noundef %11, ptr noundef @a_12, i32 noundef 3)
  %13 = icmp ne i32 %12, 0
  br i1 %13, label %15, label %14

14:                                               ; preds = %1
  store i32 0, ptr %2, align 4
  br label %38

15:                                               ; preds = %1
  %16 = load ptr, ptr %3, align 8
  %17 = getelementptr inbounds nuw %struct.SN_env, ptr %16, i32 0, i32 1
  %18 = load i32, ptr %17, align 8
  %19 = load ptr, ptr %3, align 8
  %20 = getelementptr inbounds nuw %struct.SN_env, ptr %19, i32 0, i32 4
  store i32 %18, ptr %20, align 4
  %21 = load ptr, ptr %3, align 8
  %22 = getelementptr inbounds nuw %struct.SN_env, ptr %21, i32 0, i32 0
  %23 = load ptr, ptr %22, align 8
  %24 = call i32 @len_utf8(ptr noundef %23)
  %25 = icmp sgt i32 %24, 4
  br i1 %25, label %27, label %26

26:                                               ; preds = %15
  store i32 0, ptr %2, align 4
  br label %38

27:                                               ; preds = %15
  call void @llvm.lifetime.start.p0(i64 4, ptr %4) #3
  %28 = load ptr, ptr %3, align 8
  %29 = call i32 @slice_del(ptr noundef %28)
  store i32 %29, ptr %4, align 4
  %30 = load i32, ptr %4, align 4
  %31 = icmp slt i32 %30, 0
  br i1 %31, label %32, label %34

32:                                               ; preds = %27
  %33 = load i32, ptr %4, align 4
  store i32 %33, ptr %2, align 4
  store i32 1, ptr %5, align 4
  br label %35

34:                                               ; preds = %27
  store i32 0, ptr %5, align 4
  br label %35

35:                                               ; preds = %34, %32
  call void @llvm.lifetime.end.p0(i64 4, ptr %4) #3
  %36 = load i32, ptr %5, align 4
  switch i32 %36, label %40 [
    i32 0, label %37
    i32 1, label %38
  ]

37:                                               ; preds = %35
  store i32 1, ptr %2, align 4
  br label %38

38:                                               ; preds = %37, %35, %26, %14
  %39 = load i32, ptr %2, align 4
  ret i32 %39

40:                                               ; preds = %35
  unreachable
}