; Function Attrs: nounwind uwtable
define internal fastcc i32 @r_Suffix_Noun_Step2a(ptr noundef initializes((24, 28)) %0) unnamed_addr #0 {
  %2 = getelementptr inbounds nuw i8, ptr %0, i64 8
  %3 = load i32, ptr %2, align 8
  %4 = getelementptr inbounds nuw i8, ptr %0, i64 24
  store i32 %3, ptr %4, align 8
  %5 = tail call i32 @find_among_b(ptr noundef %0, ptr noundef nonnull @a_12, i32 noundef 3) #2
  %.not = icmp eq i32 %5, 0
  br i1 %.not, label %15, label %6

6:                                                ; preds = %1
  %7 = load i32, ptr %2, align 8
  %8 = getelementptr inbounds nuw i8, ptr %0, i64 20
  store i32 %7, ptr %8, align 4
  %9 = load ptr, ptr %0, align 8
  %10 = tail call i32 @len_utf8(ptr noundef %9) #2
  %11 = icmp sgt i32 %10, 4
  br i1 %11, label %12, label %15

12:                                               ; preds = %6
  %13 = tail call i32 @slice_del(ptr noundef nonnull %0) #2
  %14 = icmp sgt i32 %13, -1
  %spec.select = select i1 %14, i32 1, i32 %13
  br label %15

15:                                               ; preds = %12, %6, %1
  %.010 = phi i32 [ 0, %1 ], [ 0, %6 ], [ %spec.select, %12 ]
  ret i32 %.010
}